(dp1
S'BD'
p2
S'Bangladesh'
p3
sS'BE'
p4
S'Belgium'
p5
sS'BF'
p6
S'Burkina Faso'
p7
sS'BG'
p8
S'Bulgaria'
p9
sS'BA'
p10
S'Bosnia And Herzegowina'
p11
sS'BB'
p12
S'Barbados'
p13
sS'WF'
p14
S'Wallis And Futuna Islands'
p15
sS'BM'
p16
S'Bermuda'
p17
sS'BN'
p18
S'Brunei Darussalam'
p19
sS'BO'
p20
S'Bolivia'
p21
sS'JP'
p22
S'Japan'
p23
sS'BI'
p24
S'Burundi'
p25
sS'BJ'
p26
S'Benin'
p27
sS'BT'
p28
S'Bhutan'
p29
sS'JM'
p30
S'Jamaica'
p31
sS'BV'
p32
S'Bouvet Island'
p33
sS'BW'
p34
S'Botswana'
p35
sS'WS'
p36
S'Samoa'
p37
sS'BR'
p38
S'Brazil'
p39
sS'BS'
p40
S'Bahamas'
p41
sS'BY'
p42
S'Belarus'
p43
sS'BZ'
p44
S'Belize'
p45
sS'RU'
p46
S'Russian Federation'
p47
sS'RW'
p48
S'Rwanda'
p49
sS'RS'
p50
S'Serbia'
p51
sS'RE'
p52
S'Reunion'
p53
sS'TM'
p54
S'Turkmenistan'
p55
sS'TJ'
p56
S'Tajikistan'
p57
sS'RO'
p58
S'Romania'
p59
sS'TK'
p60
S'Tokelau'
p61
sS'GW'
p62
S'Guinea-Bissau'
p63
sS'GU'
p64
S'Guam'
p65
sS'GT'
p66
S'Guatemala'
p67
sS'GS'
p68
S'South Georgia And South S.S.'
p69
sS'GR'
p70
S'Greece'
p71
sS'GQ'
p72
S'Equatorial Guinea'
p73
sS'GP'
p74
S'Guadeloupe'
p75
sS'BH'
p76
S'Bahrain'
p77
sS'GY'
p78
S'Guyana'
p79
sS'GF'
p80
S'French Guiana'
p81
sS'GE'
p82
S'Georgia'
p83
sS'GD'
p84
S'Grenada'
p85
sS'GB'
p86
S'United Kingdom'
p87
sS'GA'
p88
S'Gabon'
p89
sS'SV'
p90
S'El Salvador'
p91
sS'GN'
p92
S'Guinea'
p93
sS'GM'
p94
S'Gambia'
p95
sS'GL'
p96
S'Greenland'
p97
sS'GI'
p98
S'Gibraltar'
p99
sS'GH'
p100
S'Ghana'
p101
sS'OM'
p102
S'Oman'
p103
sS'TN'
p104
S'Tunisia'
p105
sS'JO'
p106
S'Jordan'
p107
sS'HR'
p108
S'Croatia'
p109
sS'HT'
p110
S'Haiti'
p111
sS'HU'
p112
S'Hungary'
p113
sS'HK'
p114
S'Hong Kong'
p115
sS'HN'
p116
S'Honduras'
p117
sS'HM'
p118
S'Heard And Mc Donald Islands'
p119
sS'VE'
p120
S'Venezuela'
p121
sS'PR'
p122
S'Puerto Rico'
p123
sS'PW'
p124
S'Palau'
p125
sS'PT'
p126
S'Portugal'
p127
sS'SJ'
p128
S'Svalbard And Jan Mayen Islands'
p129
sS'AF'
p130
S'Afghanistan'
p131
sS'IQ'
p132
S'Iraq'
p133
sS'PA'
p134
S'Panama'
p135
sS'PF'
p136
S'French Polynesia'
p137
sS'PG'
p138
S'Papua New Guinea'
p139
sS'PE'
p140
S'Peru'
p141
sS'PK'
p142
S'Pakistan'
p143
sS'PH'
p144
S'Philippines'
p145
sS'PN'
p146
S'Pitcairn'
p147
sS'PL'
p148
S'Poland'
p149
sS'PM'
p150
S'St. Pierre And Miquelon'
p151
sS'ZM'
p152
S'Zambia'
p153
sS'EH'
p154
S'Western Sahara'
p155
sS'EE'
p156
S'Estonia'
p157
sS'EG'
p158
S'Egypt'
p159
sS'ZA'
p160
S'South Africa'
p161
sS'EC'
p162
S'Ecuador'
p163
sS'AL'
p164
S'Albania'
p165
sS'VN'
p166
S'Viet Nam'
p167
sS'SB'
p168
S'Solomon Islands'
p169
sS'ET'
p170
S'Ethiopia'
p171
sS'SO'
p172
S'Somalia'
p173
sS'ZW'
p174
S'Zimbabwe'
p175
sS'SA'
p176
S'Saudi Arabia'
p177
sS'ES'
p178
S'Spain'
p179
sS'ER'
p180
S'Eritrea'
p181
sS'ME'
p182
S'Montenegro'
p183
sS'MD'
p184
S'Moldova - Republic of'
p185
sS'MG'
p186
S'Madagascar'
p187
sS'MA'
p188
S'Morocco'
p189
sS'MC'
p190
S'Monaco'
p191
sS'UZ'
p192
S'Uzbekistan'
p193
sS'MM'
p194
S'Myanmar (Burma)?'
p195
sS'ML'
p196
S'Mali'
p197
sS'MO'
p198
S'Macau'
p199
sS'MN'
p200
S'Mongolia'
p201
sS'MH'
p202
S'Marshall Islands'
p203
sS'US'
p204
S'United States'
p205
sS'MU'
p206
S'Mauritius'
p207
sS'MT'
p208
S'Malta'
p209
sS'MW'
p210
S'Malawi'
p211
sS'MV'
p212
S'Maldives'
p213
sS'MQ'
p214
S'Martinique'
p215
sS'MP'
p216
S'Northern Mariana Islands'
p217
sS'MS'
p218
S'Montserrat'
p219
sS'MR'
p220
S'Mauritania'
p221
sS'UG'
p222
S'Uganda'
p223
sS'MY'
p224
S'Malaysia'
p225
sS'MX'
p226
S'Mexico'
p227
sS'AT'
p228
S'Austria'
p229
sS'FR'
p230
S'France'
p231
sS'IO'
p232
S'British Indian Ocean Territory'
p233
sS'FX'
p234
S'France - Metropolitan'
p235
sS'SH'
p236
S'St. Helena'
p237
sS'FI'
p238
S'Finland'
p239
sS'FJ'
p240
S'Fiji'
p241
sS'FK'
p242
S'Falkland Islands (Malvinas)'
p243
sS'FM'
p244
S'Micronesia - Federal States of'
p245
sS'FO'
p246
S'Faroe Islands'
p247
sS'NI'
p248
S'Nicaragua'
p249
sS'NL'
p250
S'Netherlands'
p251
sS'NO'
p252
S'Norway'
p253
sS'NA'
p254
S'Namibia'
p255
sS'VU'
p256
S'Vanuatu'
p257
sS'NC'
p258
S'New Caledonia'
p259
sS'NE'
p260
S'Niger'
p261
sS'NF'
p262
S'Norfolk Island'
p263
sS'NG'
p264
S'Nigeria'
p265
sS'NZ'
p266
S'New Zealand'
p267
sS'NP'
p268
S'Nepal'
p269
sS'NR'
p270
S'Nauru'
p271
sS'NU'
p272
S'Niue'
p273
sS'CK'
p274
S'Cook Islands'
p275
sS'CI'
p276
S"Cote D'Ivoire"
p277
sS'CH'
p278
S'Switzerland'
p279
sS'CO'
p280
S'Colombia'
p281
sS'CN'
p282
S'China'
p283
sS'CM'
p284
S'Cameroon'
p285
sS'CL'
p286
S'Chile'
p287
sS'CC'
p288
S'Cocos (Keeling) Islands'
p289
sS'CA'
p290
S'Canada'
p291
sS'CG'
p292
S'Congo'
p293
sS'CF'
p294
S'Central African Republic'
p295
sS'CD'
p296
S'Congo - The DRC'
p297
sS'CZ'
p298
S'Czech Republic'
p299
sS'CY'
p300
S'Cyprus'
p301
sS'CX'
p302
S'Christmas Island'
p303
sS'CR'
p304
S'Costa Rica'
p305
sS'PY'
p306
S'Paraguay'
p307
sS'CV'
p308
S'Cape Verde'
p309
sS'CU'
p310
S'Cuba'
p311
sS'SZ'
p312
S'Swaziland'
p313
sS'SY'
p314
S'Syrian Arab Republic'
p315
sS'KG'
p316
S'Kyrgyzstan'
p317
sS'KE'
p318
S'Kenya'
p319
sS'SR'
p320
S'Suriname'
p321
sS'KI'
p322
S'Kiribati'
p323
sS'KH'
p324
S'Cambodia'
p325
sS'KN'
p326
S'Saint Kitts And Nevis'
p327
sS'KM'
p328
S'Comoros'
p329
sS'ST'
p330
S'Sao Tome And Principe'
p331
sS'SK'
p332
S'Slovakia'
p333
sS'KR'
p334
S'South Korea'
p335
sS'SI'
p336
S'Slovenia'
p337
sS'KP'
p338
S'North Korea'
p339
sS'KW'
p340
S'Kuwait'
p341
sS'SN'
p342
S'Senegal'
p343
sS'SM'
p344
S'San Marino'
p345
sS'SL'
p346
S'Sierra Leone'
p347
sS'SC'
p348
S'Seychelles'
p349
sS'KZ'
p350
S'Kazakhstan'
p351
sS'KY'
p352
S'Cayman Islands'
p353
sS'SG'
p354
S'Singapore'
p355
sS'SE'
p356
S'Sweden'
p357
sS'SD'
p358
S'Sudan'
p359
sS'DO'
p360
S'Dominican Republic'
p361
sS'DM'
p362
S'Dominica'
p363
sS'DJ'
p364
S'Djibouti'
p365
sS'DK'
p366
S'Denmark'
p367
sS'DE'
p368
S'Germany'
p369
sS'YE'
p370
S'Yemen'
p371
sS'DZ'
p372
S'Algeria'
p373
sS'MK'
p374
S'Macedonia'
p375
sS'UY'
p376
S'Uruguay'
p377
sS'YT'
p378
S'Mayotte'
p379
sS'UM'
p380
S'U.S. Minor Islands'
p381
sS'LB'
p382
S'Lebanon'
p383
sS'LC'
p384
S'Saint Lucia'
p385
sS'LA'
p386
S'Laos'
p387
sS'TV'
p388
S'Tuvalu'
p389
sS'TW'
p390
S'Taiwan - Province of China'
p391
sS'TT'
p392
S'Trinidad And Tobago'
p393
sS'TR'
p394
S'Turkey'
p395
sS'LK'
p396
S'Sri Lanka'
p397
sS'TP'
p398
S'East Timor'
p399
sS'LI'
p400
S'Liechtenstein'
p401
sS'LV'
p402
S'Latvia'
p403
sS'TO'
p404
S'Tonga'
p405
sS'LT'
p406
S'Lithuania'
p407
sS'LU'
p408
S'Luxembourg'
p409
sS'LR'
p410
S'Liberia'
p411
sS'LS'
p412
S'Lesotho'
p413
sS'TH'
p414
S'Thailand'
p415
sS'TF'
p416
S'French Southern Territories'
p417
sS'TG'
p418
S'Togo'
p419
sS'TD'
p420
S'Chad'
p421
sS'TC'
p422
S'Turks And Caicos Islands'
p423
sS'LY'
p424
S'Libyan Arab Jamahiriya'
p425
sS'VA'
p426
S'Holy See (Vatican City State)'
p427
sS'VC'
p428
S'Saint Vincent And The Grenadines'
p429
sS'AE'
p430
S'United Arab Emirates'
p431
sS'AD'
p432
S'Andorra'
p433
sS'AG'
p434
S'Antigua And Barbuda'
p435
sS'VG'
p436
S'Virgin Islands (British)'
p437
sS'AI'
p438
S'Anguilla'
p439
sS'VI'
p440
S'Virgin Islands (U.S.)'
p441
sS'IS'
p442
S'Iceland'
p443
sS'IR'
p444
S'Iran (Islamic Republic Of)'
p445
sS'AM'
p446
S'Armenia'
p447
sS'IT'
p448
S'Italy'
p449
sS'AO'
p450
S'Angola'
p451
sS'AN'
p452
S'Netherlands Antilles'
p453
sS'AQ'
p454
S'Antarctica'
p455
sS'AS'
p456
S'American Samoa'
p457
sS'AR'
p458
S'Argentina'
p459
sS'AU'
p460
S'Australia'
p461
sS'IL'
p462
S'Israel'
p463
sS'AW'
p464
S'Aruba'
p465
sS'IN'
p466
S'India'
p467
sS'TZ'
p468
S'Tanzania - United Republic of'
p469
sS'AZ'
p470
S'Azerbaijan'
p471
sS'IE'
p472
S'Ireland'
p473
sS'ID'
p474
S'Indonesia'
p475
sS'UA'
p476
S'Ukraine'
p477
sS'QA'
p478
S'Qatar'
p479
sS'MZ'
p480
S'Mozambique'
p481
s.