(dp1
S'BD'
p2
S'Asia'
p3
sS'BE'
p4
S'Europe'
p5
sS'BF'
p6
S'Africa'
p7
sS'BG'
p8
g5
sS'BA'
p9
g5
sS'BB'
p10
S'North America'
p11
sS'BN'
p12
g3
sS'BO'
p13
S'South America'
p14
sS'BH'
p15
g3
sS'BI'
p16
g7
sS'BJ'
p17
g7
sS'BT'
p18
g3
sS'JM'
p19
g11
sS'BW'
p20
g7
sS'WS'
p21
S'Oceania'
p22
sS'BR'
p23
g14
sS'BS'
p24
g11
sS'BY'
p25
g5
sS'BZ'
p26
g11
sS'RU'
p27
g5
sS'RW'
p28
g7
sS'RS'
p29
g5
sS'TL'
p30
g3
sS'TM'
p31
g3
sS'TJ'
p32
g3
sS'RO'
p33
g5
sS'GW'
p34
g7
sS'GT'
p35
g11
sS'GR'
p36
g5
sS'GQ'
p37
g7
sS'JP'
p38
g3
sS'GY'
p39
g14
sS'GE'
p40
g3
sS'GD'
p41
g11
sS'GB'
p42
g5
sS'GA'
p43
g7
sS'GN'
p44
g7
sS'GM'
p45
g7
sS'GH'
p46
g7
sS'OM'
p47
g3
sS'TN'
p48
g7
sS'JO'
p49
g3
sS'HR'
p50
g5
sS'HU'
p51
g5
sS'HN'
p52
g11
sS'VE'
p53
g14
sS'PW'
p54
g22
sS'PT'
p55
g5
sS'KN'
p56
g11
sS'PY'
p57
g14
sS'PA'
p58
g11
sS'PG'
p59
g22
sS'PE'
p60
g14
sS'PK'
p61
g3
sS'PH'
p62
g3
sS'PL'
p63
g5
sS'ZM'
p64
g7
sS'EE'
p65
g5
sS'EG'
p66
g7
sS'ZA'
p67
g7
sS'EC'
p68
g14
sS'IT'
p69
g5
sS'VN'
p70
g3
sS'KZ'
p71
g3
sS'ET'
p72
g7
sS'SO'
p73
g7
sS'ZW'
p74
g7
sS'ES'
p75
g5
sS'ER'
p76
g7
sS'ME'
p77
g5
sS'MD'
p78
g5
sS'MG'
p79
g7
sS'UY'
p80
g14
sS'MC'
p81
g5
sS'UZ'
p82
g3
sS'MM'
p83
g3
sS'ML'
p84
g7
sS'MN'
p85
g3
sS'MH'
p86
g22
sS'MK'
p87
g5
sS'MU'
p88
g7
sS'MT'
p89
g5
sS'MW'
p90
g7
sS'MV'
p91
g3
sS'MR'
p92
g7
sS'UG'
p93
g7
sS'MY'
p94
g3
sS'MX'
p95
g11
sS'IL'
p96
g3
sS'FR'
p97
g5
sS'MA'
p98
g7
sS'FI'
p99
g5
sS'FJ'
p100
g22
sS'FM'
p101
g22
sS'NI'
p102
g11
sS'NL'
p103
g5
sS'NO'
p104
g5
sS'NA'
p105
g7
sS'VU'
p106
g22
sS'NE'
p107
g7
sS'NG'
p108
g7
sS'NZ'
p109
g22
sS'NP'
p110
g3
sS'NR'
p111
g22
sS'CI'
p112
g7
sS'CH'
p113
g5
sS'CO'
p114
g14
sS'CN'
p115
g3
sS'CM'
p116
g7
sS'CL'
p117
g14
sS'CA'
p118
g11
sS'CG'
p119
g7
sS'CF'
p120
g7
sS'CD'
p121
g7
sS'CZ'
p122
g5
sS'CY'
p123
g3
sS'CR'
p124
g11
sS'CV'
p125
g7
sS'CU'
p126
g11
sS'SZ'
p127
g7
sS'SY'
p128
g3
sS'KG'
p129
g3
sS'KE'
p130
g7
sS'SR'
p131
g14
sS'KI'
p132
g22
sS'KH'
p133
g3
sS'SV'
p134
g11
sS'KM'
p135
g7
sS'ST'
p136
g7
sS'SK'
p137
g5
sS'KR'
p138
g3
sS'SI'
p139
g5
sS'KP'
p140
g3
sS'KW'
p141
g3
sS'SN'
p142
g7
sS'SM'
p143
g5
sS'SL'
p144
g7
sS'SC'
p145
g7
sS'SB'
p146
g22
sS'SA'
p147
g3
sS'SG'
p148
g3
sS'SE'
p149
g5
sS'SD'
p150
g7
sS'DO'
p151
g11
sS'DM'
p152
g11
sS'DJ'
p153
g7
sS'DK'
p154
g5
sS'DE'
p155
g5
sS'YE'
p156
g3
sS'DZ'
p157
g7
sS'US'
p158
g11
sS'LB'
p159
g3
sS'LC'
p160
g11
sS'LA'
p161
g3
sS'TV'
p162
g22
sS'TT'
p163
g11
sS'TR'
p164
g3
sS'LK'
p165
g3
sS'LI'
p166
g5
sS'LV'
p167
g5
sS'TO'
p168
g22
sS'LT'
p169
g5
sS'LU'
p170
g5
sS'LR'
p171
g7
sS'LS'
p172
g7
sS'TH'
p173
g3
sS'TG'
p174
g7
sS'TD'
p175
g7
sS'LY'
p176
g7
sS'VA'
p177
g5
sS'VC'
p178
g11
sS'AE'
p179
g3
sS'AD'
p180
g5
sS'AG'
p181
g11
sS'AF'
p182
g3
sS'IQ'
p183
g3
sS'IS'
p184
g5
sS'IR'
p185
g3
sS'AM'
p186
g3
sS'AL'
p187
g5
sS'AO'
p188
g7
sS'AR'
p189
g14
sS'AU'
p190
g22
sS'AT'
p191
g5
sS'IN'
p192
g3
sS'TZ'
p193
g7
sS'AZ'
p194
g3
sS'IE'
p195
g5
sS'ID'
p196
g3
sS'UA'
p197
g5
sS'QA'
p198
g3
sS'MZ'
p199
g7
s.